target datalayout = "e-m:e-p270:32:32-p271:32:32-p272:64:64-i64:64-i128:128-f80:128-n8:16:32:64-S128"
target triple = "x86_64-pc-linux-gnu"

%struct._object = type { %union.anon, ptr }
%union.anon = type { i64 }
%struct._typeobject = type { %struct.PyVarObject, ptr, i64, i64, ptr, i64, ptr, ptr, ptr, ptr, ptr, ptr, ptr, ptr, ptr, ptr, ptr, ptr, ptr, i64, ptr, ptr, ptr, ptr, i64, ptr, ptr, ptr, ptr, ptr, ptr, ptr, ptr, ptr, i64, ptr, ptr, ptr, ptr, ptr, ptr, ptr, ptr, ptr, ptr, ptr, i32, ptr, ptr, i8, i16 }
%struct.PyVarObject = type { %struct._object, i64 }

@.str.1 = private unnamed_addr constant [8 x i8] c"openlog\00", align 1
@.str.10 = private unnamed_addr constant [17 x i8] c"argument 'ident'\00", align 1
@.str.11 = private unnamed_addr constant [4 x i8] c"str\00", align 1

; Function Attrs: inlinehint nounwind uwtable
define internal i64 @Py_SIZE(ptr noundef %0) #3 {
  %2 = alloca ptr, align 8
  store ptr %0, ptr %2, align 8, !tbaa !3
  %3 = load ptr, ptr %2, align 8, !tbaa !3
  %4 = getelementptr inbounds nuw %struct.PyVarObject, ptr %3, i32 0, i32 1
  %5 = load i64, ptr %4, align 8, !tbaa !29
  ret i64 %5
}

; Function Attrs: inlinehint nounwind uwtable
define internal i32 @PyType_HasFeature(ptr noundef %0, i64 noundef %1) #3 {
  %3 = alloca ptr, align 8
  %4 = alloca i64, align 8
  %5 = alloca i64, align 8
  store ptr %0, ptr %3, align 8, !tbaa !17
  store i64 %1, ptr %4, align 8, !tbaa !10
  call void @llvm.lifetime.start.p0(i64 8, ptr %5) #6
  %6 = load ptr, ptr %3, align 8, !tbaa !17
  %7 = getelementptr inbounds nuw %struct._typeobject, ptr %6, i32 0, i32 19
  %8 = load i64, ptr %7, align 8, !tbaa !19
  store i64 %8, ptr %5, align 8, !tbaa !10
  %9 = load i64, ptr %5, align 8, !tbaa !10
  %10 = load i64, ptr %4, align 8, !tbaa !10
  %11 = and i64 %9, %10
  %12 = icmp ne i64 %11, 0
  %13 = zext i1 %12 to i32
  call void @llvm.lifetime.end.p0(i64 8, ptr %5) #6
  ret i32 %13
}

; Function Attrs: inlinehint nounwind uwtable
define internal ptr @_Py_TYPE(ptr noundef %0) #3 {
  %2 = alloca ptr, align 8
  store ptr %0, ptr %2, align 8, !tbaa !3
  %3 = load ptr, ptr %2, align 8, !tbaa !3
  %4 = getelementptr inbounds nuw %struct._object, ptr %3, i32 0, i32 1
  %5 = load ptr, ptr %4, align 8, !tbaa !27
  ret ptr %5
}

; Function Attrs: inlinehint nounwind uwtable
define internal i64 @PyTuple_GET_SIZE(ptr noundef %0) #3 {
  %2 = alloca ptr, align 8
  %3 = alloca ptr, align 8
  store ptr %0, ptr %2, align 8, !tbaa !3
  call void @llvm.lifetime.start.p0(i64 8, ptr %3) #6
  %4 = load ptr, ptr %2, align 8, !tbaa !3
  store ptr %4, ptr %3, align 8, !tbaa !16
  %5 = load ptr, ptr %3, align 8, !tbaa !16
  %6 = call i64 @Py_SIZE(ptr noundef %5)
  call void @llvm.lifetime.end.p0(i64 8, ptr %3) #6
  ret i64 %6
}

; Function Attrs: nounwind uwtable
define internal ptr @syslog_openlog(ptr noundef %0, ptr noundef %1, i64 noundef %2, ptr noundef %3) #0 {
  %5 = alloca ptr, align 8
  %6 = alloca ptr, align 8
  %7 = alloca i64, align 8
  %8 = alloca ptr, align 8
  %9 = alloca ptr, align 8
  %10 = alloca [3 x ptr], align 16
  %11 = alloca i64, align 8
  %12 = alloca ptr, align 8
  %13 = alloca i64, align 8
  %14 = alloca i64, align 8
  store ptr %0, ptr %5, align 8, !tbaa !3
  store ptr %1, ptr %6, align 8, !tbaa !8
  store i64 %2, ptr %7, align 8, !tbaa !10
  store ptr %3, ptr %8, align 8, !tbaa !3
  call void @llvm.lifetime.start.p0(i64 8, ptr %9) #6
  store ptr null, ptr %9, align 8, !tbaa !3
  call void @llvm.lifetime.start.p0(i64 24, ptr %10) #6
  call void @llvm.lifetime.start.p0(i64 8, ptr %11) #6
  %15 = load i64, ptr %7, align 8, !tbaa !10
  %16 = load ptr, ptr %8, align 8, !tbaa !3
  %17 = icmp ne ptr %16, null
  br i1 %17, label %18, label %21

18:                                               ; preds = %4
  %19 = load ptr, ptr %8, align 8, !tbaa !3
  %20 = call i64 @PyTuple_GET_SIZE(ptr noundef %19)
  br label %22

21:                                               ; preds = %4
  br label %22

22:                                               ; preds = %21, %18
  %23 = phi i64 [ %20, %18 ], [ 0, %21 ]
  %24 = add i64 %15, %23
  %25 = sub i64 %24, 0
  store i64 %25, ptr %11, align 8, !tbaa !10
  call void @llvm.lifetime.start.p0(i64 8, ptr %12) #6
  store ptr null, ptr %12, align 8, !tbaa !3
  call void @llvm.lifetime.start.p0(i64 8, ptr %13) #6
  store i64 0, ptr %13, align 8, !tbaa !10
  call void @llvm.lifetime.start.p0(i64 8, ptr %14) #6
  store i64 8, ptr %14, align 8, !tbaa !10
  %26 = load ptr, ptr %8, align 8, !tbaa !3
  %27 = icmp eq ptr %26, null
  br i1 %27, label %28, label %39

28:                                               ; preds = %22
  %29 = load i64, ptr %7, align 8, !tbaa !10
  %30 = icmp sle i64 0, %29
  br i1 %30, label %31, label %39

31:                                               ; preds = %28
  %32 = load i64, ptr %7, align 8, !tbaa !10
  %33 = icmp sle i64 %32, 3
  br i1 %33, label %34, label %39

34:                                               ; preds = %31
  %35 = load ptr, ptr %6, align 8, !tbaa !8
  %36 = icmp ne ptr %35, null
  br i1 %36, label %37, label %39

37:                                               ; preds = %34
  %38 = load ptr, ptr %6, align 8, !tbaa !8
  br label %45

39:                                               ; preds = %34, %31, %28, %22
  %40 = load ptr, ptr %6, align 8, !tbaa !8
  %41 = load i64, ptr %7, align 8, !tbaa !10
  %42 = load ptr, ptr %8, align 8, !tbaa !3
  %43 = getelementptr inbounds [3 x ptr], ptr %10, i64 0, i64 0
  %44 = call ptr @_PyArg_UnpackKeywords(ptr noundef %40, i64 noundef %41, ptr noundef null, ptr noundef %42, ptr noundef @syslog_openlog._parser, i32 noundef 0, i32 noundef 3, i32 noundef 0, i32 noundef 0, ptr noundef %43)
  br label %45

45:                                               ; preds = %39, %37
  %46 = phi ptr [ %38, %37 ], [ %44, %39 ]
  store ptr %46, ptr %6, align 8, !tbaa !8
  %47 = load ptr, ptr %6, align 8, !tbaa !8
  %48 = icmp ne ptr %47, null
  br i1 %48, label %50, label %49

49:                                               ; preds = %45
  br label %119

50:                                               ; preds = %45
  %51 = load i64, ptr %11, align 8, !tbaa !10
  %52 = icmp ne i64 %51, 0
  br i1 %52, label %54, label %53

53:                                               ; preds = %50
  br label %113

54:                                               ; preds = %50
  %55 = load ptr, ptr %6, align 8, !tbaa !8
  %56 = getelementptr ptr, ptr %55, i64 0
  %57 = load ptr, ptr %56, align 8, !tbaa !3
  %58 = icmp ne ptr %57, null
  br i1 %58, label %59, label %79

59:                                               ; preds = %54
  %60 = load ptr, ptr %6, align 8, !tbaa !8
  %61 = getelementptr ptr, ptr %60, i64 0
  %62 = load ptr, ptr %61, align 8, !tbaa !3
  %63 = call ptr @_Py_TYPE(ptr noundef %62)
  %64 = call i32 @PyType_HasFeature(ptr noundef %63, i64 noundef 268435456)
  %65 = icmp ne i32 %64, 0
  br i1 %65, label %70, label %66

66:                                               ; preds = %59
  %67 = load ptr, ptr %6, align 8, !tbaa !8
  %68 = getelementptr ptr, ptr %67, i64 0
  %69 = load ptr, ptr %68, align 8, !tbaa !3
  call void @_PyArg_BadArgument(ptr noundef @.str.1, ptr noundef @.str.10, ptr noundef @.str.11, ptr noundef %69)
  br label %119

70:                                               ; preds = %59
  %71 = load ptr, ptr %6, align 8, !tbaa !8
  %72 = getelementptr ptr, ptr %71, i64 0
  %73 = load ptr, ptr %72, align 8, !tbaa !3
  store ptr %73, ptr %12, align 8, !tbaa !3
  %74 = load i64, ptr %11, align 8, !tbaa !10
  %75 = add i64 %74, -1
  store i64 %75, ptr %11, align 8, !tbaa !10
  %76 = icmp ne i64 %75, 0
  br i1 %76, label %78, label %77

77:                                               ; preds = %70
  br label %113

78:                                               ; preds = %70
  br label %79

79:                                               ; preds = %78, %54
  %80 = load ptr, ptr %6, align 8, !tbaa !8
  %81 = getelementptr ptr, ptr %80, i64 1
  %82 = load ptr, ptr %81, align 8, !tbaa !3
  %83 = icmp ne ptr %82, null
  br i1 %83, label %84, label %101

84:                                               ; preds = %79
  %85 = load ptr, ptr %6, align 8, !tbaa !8
  %86 = getelementptr ptr, ptr %85, i64 1
  %87 = load ptr, ptr %86, align 8, !tbaa !3
  %88 = call i64 @PyLong_AsLong(ptr noundef %87)
  store i64 %88, ptr %13, align 8, !tbaa !10
  %89 = load i64, ptr %13, align 8, !tbaa !10
  %90 = icmp eq i64 %89, -1
  br i1 %90, label %91, label %95

91:                                               ; preds = %84
  %92 = call ptr @PyErr_Occurred()
  %93 = icmp ne ptr %92, null
  br i1 %93, label %94, label %95

94:                                               ; preds = %91
  br label %119

95:                                               ; preds = %91, %84
  %96 = load i64, ptr %11, align 8, !tbaa !10
  %97 = add i64 %96, -1
  store i64 %97, ptr %11, align 8, !tbaa !10
  %98 = icmp ne i64 %97, 0
  br i1 %98, label %100, label %99

99:                                               ; preds = %95
  br label %113

100:                                              ; preds = %95
  br label %101

101:                                              ; preds = %100, %79
  %102 = load ptr, ptr %6, align 8, !tbaa !8
  %103 = getelementptr ptr, ptr %102, i64 2
  %104 = load ptr, ptr %103, align 8, !tbaa !3
  %105 = call i64 @PyLong_AsLong(ptr noundef %104)
  store i64 %105, ptr %14, align 8, !tbaa !10
  %106 = load i64, ptr %14, align 8, !tbaa !10
  %107 = icmp eq i64 %106, -1
  br i1 %107, label %108, label %112

108:                                              ; preds = %101
  %109 = call ptr @PyErr_Occurred()
  %110 = icmp ne ptr %109, null
  br i1 %110, label %111, label %112

111:                                              ; preds = %108
  br label %119

112:                                              ; preds = %108, %101
  br label %113

113:                                              ; preds = %112, %99, %77, %53
  %114 = load ptr, ptr %5, align 8, !tbaa !3
  %115 = load ptr, ptr %12, align 8, !tbaa !3
  %116 = load i64, ptr %13, align 8, !tbaa !10
  %117 = load i64, ptr %14, align 8, !tbaa !10
  %118 = call ptr @syslog_openlog_impl(ptr noundef %114, ptr noundef %115, i64 noundef %116, i64 noundef %117)
  store ptr %118, ptr %9, align 8, !tbaa !3
  br label %119

119:                                              ; preds = %113, %111, %94, %66, %49
  %120 = load ptr, ptr %9, align 8, !tbaa !3
  call void @llvm.lifetime.end.p0(i64 8, ptr %14) #6
  call void @llvm.lifetime.end.p0(i64 8, ptr %13) #6
  call void @llvm.lifetime.end.p0(i64 8, ptr %12) #6
  call void @llvm.lifetime.end.p0(i64 8, ptr %11) #6
  call void @llvm.lifetime.end.p0(i64 24, ptr %10) #6
  call void @llvm.lifetime.end.p0(i64 8, ptr %9) #6
  ret ptr %120
}